; Function Attrs: nounwind uwtable
define noalias noundef nonnull ptr @l_Std_Time_PlainDate_subWeeks(ptr noundef %0, ptr noundef %1) local_unnamed_addr #0 {
  %3 = ptrtoint ptr %1 to i64
  %4 = and i64 %3, 1
  %.not.i21 = icmp eq i64 %4, 0
  br i1 %.not.i21, label %18, label %5, !prof !8

5:                                                ; preds = %2
  %6 = shl i64 %3, 31
  %7 = ashr i64 %6, 32
  %8 = sub nsw i64 0, %7
  %9 = add nsw i64 %7, 2147483647
  %10 = icmp ult i64 %9, 4294967296
  br i1 %10, label %11, label %16, !prof !14

11:                                               ; preds = %5
  %12 = shl nsw i64 %8, 1
  %13 = and i64 %12, 8589934590
  %14 = or disjoint i64 %13, 1
  %15 = inttoptr i64 %14 to ptr
  br label %lean_int_neg.exit

16:                                               ; preds = %5
  %17 = tail call ptr @lean_big_int64_to_int(i64 noundef range(i64 -4611686016279904256, 4611686018427387905) %8) #5
  br label %lean_int_neg.exit

18:                                               ; preds = %2
  %19 = tail call ptr @lean_int_big_neg(ptr noundef %1) #5
  br label %lean_int_neg.exit

lean_int_neg.exit:                                ; preds = %11, %16, %18
  %.0.i = phi ptr [ %19, %18 ], [ %15, %11 ], [ %17, %16 ]
  %20 = tail call ptr @l_Std_Time_PlainDate_toDaysSinceUNIXEpoch(ptr noundef %0)
  %21 = load ptr, ptr @l___private_Std_Time_Date_PlainDate_0__Std_Time_reprPlainDate____x40_Std_Time_Date_PlainDate___hyg_340____closed__16, align 8, !tbaa !4
  %22 = ptrtoint ptr %.0.i to i64
  %23 = and i64 %22, 1
  %.not.i22 = icmp eq i64 %23, 0
  br i1 %.not.i22, label %43, label %24, !prof !8

24:                                               ; preds = %lean_int_neg.exit
  %25 = ptrtoint ptr %21 to i64
  %26 = and i64 %25, 1
  %.not7.i = icmp eq i64 %26, 0
  br i1 %.not7.i, label %lean_int_mul.exit.thread30, label %28, !prof !8

lean_int_mul.exit.thread30:                       ; preds = %24
  %27 = tail call ptr @lean_int_big_mul(ptr noundef %.0.i, ptr noundef %21) #5
  br label %lean_dec.exit14

28:                                               ; preds = %24
  %29 = shl i64 %22, 31
  %30 = ashr i64 %29, 32
  %31 = shl i64 %25, 31
  %32 = ashr i64 %31, 32
  %33 = mul nsw i64 %32, %30
  %34 = add nsw i64 %33, 2147483648
  %35 = icmp ult i64 %34, 4294967296
  br i1 %35, label %36, label %41, !prof !14

36:                                               ; preds = %28
  %37 = shl nsw i64 %33, 1
  %38 = and i64 %37, 8589934590
  %39 = or disjoint i64 %38, 1
  %40 = inttoptr i64 %39 to ptr
  br label %lean_dec.exit14

41:                                               ; preds = %28
  %42 = tail call ptr @lean_big_int64_to_int(i64 noundef range(i64 -4611686016279904256, 4611686018427387905) %33) #5
  br label %lean_dec.exit14

43:                                               ; preds = %lean_int_neg.exit
  %44 = tail call ptr @lean_int_big_mul(ptr noundef %.0.i, ptr noundef %21) #5
  %45 = load i32, ptr %.0.i, align 4, !tbaa !9
  %46 = icmp sgt i32 %45, 1
  br i1 %46, label %47, label %49, !prof !14

47:                                               ; preds = %43
  %48 = add nsw i32 %45, -1
  store i32 %48, ptr %.0.i, align 4, !tbaa !9
  br label %lean_dec.exit14

49:                                               ; preds = %43
  %.not.i = icmp eq i32 %45, 0
  br i1 %.not.i, label %lean_dec.exit14, label %50

50:                                               ; preds = %49
  tail call void @lean_dec_ref_cold(ptr noundef nonnull %.0.i) #5
  br label %lean_dec.exit14

lean_dec.exit14:                                  ; preds = %41, %36, %50, %49, %47, %lean_int_mul.exit.thread30
  %.0.i2329 = phi ptr [ %27, %lean_int_mul.exit.thread30 ], [ %44, %47 ], [ %44, %49 ], [ %44, %50 ], [ %42, %41 ], [ %40, %36 ]
  %51 = ptrtoint ptr %20 to i64
  %52 = and i64 %51, 1
  %.not.i24 = icmp eq i64 %52, 0
  %.pre35 = ptrtoint ptr %.0.i2329 to i64
  %.pre = and i64 %.pre35, 1
  %53 = icmp eq i64 %.pre, 0
  br i1 %.not.i24, label %lean_int_add.exit, label %54, !prof !8

54:                                               ; preds = %lean_dec.exit14
  br i1 %53, label %lean_int_add.exit.thread39, label %56, !prof !8

lean_int_add.exit.thread39:                       ; preds = %54
  %55 = tail call ptr @lean_int_big_add(ptr noundef %20, ptr noundef %.0.i2329) #5
  br label %72

56:                                               ; preds = %54
  %57 = shl i64 %51, 31
  %58 = ashr i64 %57, 32
  %59 = shl i64 %.pre35, 31
  %60 = ashr i64 %59, 32
  %61 = add nsw i64 %60, %58
  %62 = add nsw i64 %61, 2147483648
  %63 = icmp ult i64 %62, 4294967296
  br i1 %63, label %64, label %69, !prof !14

64:                                               ; preds = %56
  %65 = shl nsw i64 %61, 1
  %66 = and i64 %65, 8589934590
  %67 = or disjoint i64 %66, 1
  %68 = inttoptr i64 %67 to ptr
  br label %lean_dec.exit12

69:                                               ; preds = %56
  %70 = tail call ptr @lean_big_int64_to_int(i64 noundef range(i64 -4611686016279904256, 4611686018427387905) %61) #5
  br label %lean_dec.exit12

lean_int_add.exit:                                ; preds = %lean_dec.exit14
  %71 = tail call ptr @lean_int_big_add(ptr noundef %20, ptr noundef %.0.i2329) #5
  br i1 %53, label %72, label %lean_dec.exit13.thread

72:                                               ; preds = %lean_int_add.exit.thread39, %lean_int_add.exit
  %73 = phi ptr [ %55, %lean_int_add.exit.thread39 ], [ %71, %lean_int_add.exit ]
  %74 = load i32, ptr %.0.i2329, align 4, !tbaa !9
  %75 = icmp sgt i32 %74, 1
  br i1 %75, label %76, label %78, !prof !14

76:                                               ; preds = %72
  %77 = add nsw i32 %74, -1
  store i32 %77, ptr %.0.i2329, align 4, !tbaa !9
  br label %lean_dec.exit13

78:                                               ; preds = %72
  %.not.i15 = icmp eq i32 %74, 0
  br i1 %.not.i15, label %lean_dec.exit13, label %79

79:                                               ; preds = %78
  tail call void @lean_dec_ref_cold(ptr noundef nonnull %.0.i2329) #5
  br label %lean_dec.exit13

lean_dec.exit13:                                  ; preds = %79, %78, %76
  br i1 %.not.i24, label %lean_dec.exit13.thread, label %lean_dec.exit12

lean_dec.exit13.thread:                           ; preds = %lean_int_add.exit, %lean_dec.exit13
  %.0.i263843 = phi ptr [ %73, %lean_dec.exit13 ], [ %71, %lean_int_add.exit ]
  %80 = load i32, ptr %20, align 4, !tbaa !9
  %81 = icmp sgt i32 %80, 1
  br i1 %81, label %82, label %84, !prof !14

82:                                               ; preds = %lean_dec.exit13.thread
  %83 = add nsw i32 %80, -1
  store i32 %83, ptr %20, align 4, !tbaa !9
  br label %lean_dec.exit12

84:                                               ; preds = %lean_dec.exit13.thread
  %.not.i17 = icmp eq i32 %80, 0
  br i1 %.not.i17, label %lean_dec.exit12, label %85

85:                                               ; preds = %84
  tail call void @lean_dec_ref_cold(ptr noundef nonnull %20) #5
  br label %lean_dec.exit12

lean_dec.exit12:                                  ; preds = %64, %69, %85, %84, %82, %lean_dec.exit13
  %.0.i263842 = phi ptr [ %.0.i263843, %85 ], [ %.0.i263843, %84 ], [ %.0.i263843, %82 ], [ %73, %lean_dec.exit13 ], [ %70, %69 ], [ %68, %64 ]
  %86 = tail call ptr @l_Std_Time_PlainDate_ofDaysSinceUNIXEpoch(ptr noundef %.0.i263842)
  %87 = ptrtoint ptr %.0.i263842 to i64
  %88 = and i64 %87, 1
  %.not32 = icmp eq i64 %88, 0
  br i1 %.not32, label %89, label %lean_dec.exit

89:                                               ; preds = %lean_dec.exit12
  %90 = load i32, ptr %.0.i263842, align 4, !tbaa !9
  %91 = icmp sgt i32 %90, 1
  br i1 %91, label %92, label %94, !prof !14

92:                                               ; preds = %89
  %93 = add nsw i32 %90, -1
  store i32 %93, ptr %.0.i263842, align 4, !tbaa !9
  br label %lean_dec.exit

94:                                               ; preds = %89
  %.not.i19 = icmp eq i32 %90, 0
  br i1 %.not.i19, label %lean_dec.exit, label %95

95:                                               ; preds = %94
  tail call void @lean_dec_ref_cold(ptr noundef nonnull %.0.i263842) #5
  br label %lean_dec.exit

lean_dec.exit:                                    ; preds = %95, %94, %92, %lean_dec.exit12
  ret ptr %86
}